target datalayout = "e-m:e-p270:32:32-p271:32:32-p272:64:64-i64:64-i128:128-f80:128-n8:16:32:64-S128"
target triple = "x86_64-pc-linux-gnu"

%struct.object_id = type { [32 x i8], i32 }

@the_repository = external global ptr, align 8

; Function Attrs: nounwind uwtable
define internal i32 @mark_bitmap_preferred_tip(ptr noundef %0, ptr noundef %1, ptr noundef %2, i32 noundef %3, ptr noundef %4) #0 {
  %6 = alloca ptr, align 8
  %7 = alloca ptr, align 8
  %8 = alloca ptr, align 8
  %9 = alloca i32, align 4
  %10 = alloca ptr, align 8
  %11 = alloca %struct.object_id, align 4
  %12 = alloca ptr, align 8
  store ptr %0, ptr %6, align 8, !tbaa !24
  store ptr %1, ptr %7, align 8, !tbaa !24
  store ptr %2, ptr %8, align 8, !tbaa !190
  store i32 %3, ptr %9, align 4, !tbaa !27
  store ptr %4, ptr %10, align 8, !tbaa !134
  call void @llvm.lifetime.start.p0(i64 36, ptr %11) #11
  call void @llvm.lifetime.start.p0(i64 8, ptr %12) #11
  %13 = load ptr, ptr @the_repository, align 8, !tbaa !11
  %14 = load ptr, ptr %8, align 8, !tbaa !190
  %15 = call i32 @peel_iterated_oid(ptr noundef %13, ptr noundef %14, ptr noundef %11)
  %16 = icmp ne i32 %15, 0
  br i1 %16, label %18, label %17

17:                                               ; preds = %5
  store ptr %11, ptr %8, align 8, !tbaa !190
  br label %18

18:                                               ; preds = %17, %5
  %19 = load ptr, ptr %8, align 8, !tbaa !190
  %20 = load ptr, ptr %6, align 8, !tbaa !24
  %21 = call ptr @parse_object_or_die(ptr noundef %19, ptr noundef %20)
  store ptr %21, ptr %12, align 8, !tbaa !171
  %22 = load ptr, ptr %12, align 8, !tbaa !171
  %23 = load i32, ptr %22, align 4
  %24 = lshr i32 %23, 1
  %25 = and i32 %24, 7
  %26 = icmp eq i32 %25, 1
  br i1 %26, label %27, label %37

27:                                               ; preds = %18
  %28 = load ptr, ptr %12, align 8, !tbaa !171
  %29 = load i32, ptr %28, align 4
  %30 = lshr i32 %29, 4
  %31 = or i32 %30, 4194304
  %32 = load i32, ptr %28, align 4
  %33 = and i32 %31, 268435455
  %34 = shl i32 %33, 4
  %35 = and i32 %32, 15
  %36 = or i32 %35, %34
  store i32 %36, ptr %28, align 4
  br label %37

37:                                               ; preds = %27, %18
  call void @llvm.lifetime.end.p0(i64 8, ptr %12) #11
  call void @llvm.lifetime.end.p0(i64 36, ptr %11) #11
  ret i32 0
}