; Function Attrs: nounwind uwtable
define internal noundef i32 @mark_bitmap_preferred_tip(ptr noundef %0, ptr readnone captures(none) %1, ptr noundef %2, i32 %3, ptr readnone captures(none) %4) #0 {
  %6 = alloca %struct.object_id, align 4
  call void @llvm.lifetime.start.p0(i64 36, ptr nonnull %6) #25
  %7 = load ptr, ptr @the_repository, align 8, !tbaa !4
  %8 = call i32 @peel_iterated_oid(ptr noundef %7, ptr noundef %2, ptr noundef nonnull %6) #25
  %.not = icmp eq i32 %8, 0
  %spec.select = select i1 %.not, ptr %6, ptr %2
  %9 = call ptr @parse_object_or_die(ptr noundef %spec.select, ptr noundef %0) #25
  %10 = load i32, ptr %9, align 4
  %11 = and i32 %10, 14
  %12 = icmp eq i32 %11, 2
  br i1 %12, label %13, label %15

13:                                               ; preds = %5
  %14 = or i32 %10, 67108864
  store i32 %14, ptr %9, align 4
  br label %15

15:                                               ; preds = %13, %5
  call void @llvm.lifetime.end.p0(i64 36, ptr nonnull %6) #25
  ret i32 0
}